target datalayout = "e-m:e-p270:32:32-p271:32:32-p272:64:64-i64:64-i128:128-f80:128-n8:16:32:64-S128"
target triple = "x86_64-pc-linux-gnu"

%struct._zend_refcounted_h = type { i32, %union.anon.4 }
%union.anon.4 = type { i32 }
%struct._zval_struct = type { %union._zend_value, %union.anon.0, %union.anon.3 }
%union._zend_value = type { i64 }
%union.anon.0 = type { i32 }
%union.anon.3 = type { i32 }
%struct._zend_ast_zval = type { i16, i16, %struct._zval_struct }
%struct._zend_string = type { %struct._zend_refcounted_h, i64, i64, [1 x i8] }
%struct._zend_ast = type { i16, i16, i32, [1 x ptr] }
%struct._zend_ast_list = type { i16, i16, i32, i32, [1 x ptr] }
%struct.smart_str = type { ptr, i64 }

; Function Attrs: nounwind uwtable
define internal void @zend_ast_export_name(ptr noundef %0, ptr noundef %1, i32 noundef %2, i32 noundef %3) #0 {
  %5 = alloca ptr, align 8
  %6 = alloca i64, align 8
  %7 = alloca i8, align 1
  %8 = alloca ptr, align 8
  %9 = alloca ptr, align 8
  %10 = alloca i64, align 8
  %11 = alloca i8, align 1
  %12 = alloca i64, align 8
  %13 = alloca ptr, align 8
  %14 = alloca ptr, align 8
  %15 = alloca i8, align 1
  %16 = alloca ptr, align 8
  %17 = alloca ptr, align 8
  %18 = alloca ptr, align 8
  %19 = alloca ptr, align 8
  %20 = alloca ptr, align 8
  %21 = alloca ptr, align 8
  %22 = alloca i32, align 4
  %23 = alloca i32, align 4
  %24 = alloca ptr, align 8
  store ptr %0, ptr %20, align 8
  store ptr %1, ptr %21, align 8
  store i32 %2, ptr %22, align 4
  store i32 %3, ptr %23, align 4
  %25 = load ptr, ptr %21, align 8
  %26 = getelementptr inbounds %struct._zend_ast, ptr %25, i32 0, i32 0
  %27 = load i16, ptr %26, align 8
  %28 = zext i16 %27 to i32
  %29 = icmp eq i32 %28, 64
  br i1 %29, label %30, label %110

30:                                               ; preds = %4
  %31 = load ptr, ptr %21, align 8
  store ptr %31, ptr %19, align 8
  %32 = load ptr, ptr %19, align 8
  %33 = load i16, ptr %32, align 8
  %34 = zext i16 %33 to i32
  %35 = icmp eq i32 %34, 64
  call void @llvm.assume(i1 %35)
  %36 = load ptr, ptr %19, align 8
  %37 = getelementptr inbounds %struct._zend_ast_zval, ptr %36, i32 0, i32 2
  store ptr %37, ptr %24, align 8
  %38 = load ptr, ptr %24, align 8
  store ptr %38, ptr %18, align 8
  %39 = load ptr, ptr %18, align 8
  %40 = getelementptr inbounds %struct._zval_struct, ptr %39, i32 0, i32 1
  %41 = load i8, ptr %40, align 8
  %42 = zext i8 %41 to i32
  %43 = icmp eq i32 %42, 6
  br i1 %43, label %44, label %109

44:                                               ; preds = %30
  %45 = load ptr, ptr %20, align 8
  %46 = load ptr, ptr %24, align 8
  %47 = getelementptr inbounds %struct._zval_struct, ptr %46, i32 0, i32 0
  %48 = load ptr, ptr %47, align 8
  store ptr %45, ptr %16, align 8
  store ptr %48, ptr %17, align 8
  %49 = load ptr, ptr %16, align 8
  %50 = load ptr, ptr %17, align 8
  store ptr %49, ptr %13, align 8
  store ptr %50, ptr %14, align 8
  store i8 0, ptr %15, align 1
  %51 = load ptr, ptr %13, align 8
  %52 = load ptr, ptr %14, align 8
  %53 = getelementptr inbounds %struct._zend_string, ptr %52, i32 0, i32 3
  %54 = load ptr, ptr %14, align 8
  %55 = getelementptr inbounds %struct._zend_string, ptr %54, i32 0, i32 2
  %56 = load i64, ptr %55, align 8
  %57 = load i8, ptr %15, align 1
  %58 = trunc i8 %57 to i1
  store ptr %51, ptr %8, align 8
  store ptr %53, ptr %9, align 8
  store i64 %56, ptr %10, align 8
  %59 = zext i1 %58 to i8
  store i8 %59, ptr %11, align 1
  %60 = load ptr, ptr %8, align 8
  %61 = load i64, ptr %10, align 8
  %62 = load i8, ptr %11, align 1
  %63 = trunc i8 %62 to i1
  store ptr %60, ptr %5, align 8
  store i64 %61, ptr %6, align 8
  %64 = zext i1 %63 to i8
  store i8 %64, ptr %7, align 1
  %65 = load ptr, ptr %5, align 8
  %66 = load ptr, ptr %65, align 8
  %67 = icmp ne ptr %66, null
  %68 = xor i1 %67, true
  br i1 %68, label %69, label %70

69:                                               ; preds = %44
  br label %83

70:                                               ; preds = %44
  %71 = load ptr, ptr %5, align 8
  %72 = load ptr, ptr %71, align 8
  %73 = getelementptr inbounds %struct._zend_string, ptr %72, i32 0, i32 2
  %74 = load i64, ptr %73, align 8
  %75 = load i64, ptr %6, align 8
  %76 = add i64 %75, %74
  store i64 %76, ptr %6, align 8
  %77 = load i64, ptr %6, align 8
  %78 = load ptr, ptr %5, align 8
  %79 = getelementptr inbounds %struct.smart_str, ptr %78, i32 0, i32 1
  %80 = load i64, ptr %79, align 8
  %81 = icmp uge i64 %77, %80
  br i1 %81, label %82, label %93

82:                                               ; preds = %70
  br label %83

83:                                               ; preds = %82, %69
  %84 = load i8, ptr %7, align 1
  %85 = trunc i8 %84 to i1
  br i1 %85, label %86, label %89

86:                                               ; preds = %83
  %87 = load ptr, ptr %5, align 8
  %88 = load i64, ptr %6, align 8
  call void @smart_str_realloc(ptr noundef %87, i64 noundef %88) #10
  br label %92

89:                                               ; preds = %83
  %90 = load ptr, ptr %5, align 8
  %91 = load i64, ptr %6, align 8
  call void @smart_str_erealloc(ptr noundef %90, i64 noundef %91) #10
  br label %92

92:                                               ; preds = %89, %86
  br label %93

93:                                               ; preds = %92, %70
  %94 = load i64, ptr %6, align 8
  store i64 %94, ptr %12, align 8
  %95 = load ptr, ptr %8, align 8
  %96 = load ptr, ptr %95, align 8
  %97 = getelementptr inbounds %struct._zend_string, ptr %96, i32 0, i32 3
  %98 = load ptr, ptr %8, align 8
  %99 = load ptr, ptr %98, align 8
  %100 = getelementptr inbounds %struct._zend_string, ptr %99, i32 0, i32 2
  %101 = load i64, ptr %100, align 8
  %102 = getelementptr inbounds i8, ptr %97, i64 %101
  %103 = load ptr, ptr %9, align 8
  %104 = load i64, ptr %10, align 8
  call void @llvm.memcpy.p0.p0.i64(ptr align 1 %102, ptr align 1 %103, i64 %104, i1 false)
  %105 = load i64, ptr %12, align 8
  %106 = load ptr, ptr %8, align 8
  %107 = load ptr, ptr %106, align 8
  %108 = getelementptr inbounds %struct._zend_string, ptr %107, i32 0, i32 2
  store i64 %105, ptr %108, align 8
  br label %115

109:                                              ; preds = %30
  br label %110

110:                                              ; preds = %109, %4
  %111 = load ptr, ptr %20, align 8
  %112 = load ptr, ptr %21, align 8
  %113 = load i32, ptr %22, align 4
  %114 = load i32, ptr %23, align 4
  call void @zend_ast_export_ex(ptr noundef %111, ptr noundef %112, i32 noundef %113, i32 noundef %114)
  br label %115

115:                                              ; preds = %110, %93
  ret void
}

; Function Attrs: nounwind uwtable
define internal void @zend_ast_export_name_list_ex(ptr noundef %0, ptr noundef %1, i32 noundef %2, ptr noundef %3) #0 {
  %5 = alloca ptr, align 8
  %6 = alloca i64, align 8
  %7 = alloca i8, align 1
  %8 = alloca ptr, align 8
  %9 = alloca ptr, align 8
  %10 = alloca i64, align 8
  %11 = alloca i8, align 1
  %12 = alloca i64, align 8
  %13 = alloca ptr, align 8
  %14 = alloca ptr, align 8
  %15 = alloca ptr, align 8
  %16 = alloca ptr, align 8
  %17 = alloca i32, align 4
  %18 = alloca ptr, align 8
  %19 = alloca i32, align 4
  store ptr %0, ptr %15, align 8
  store ptr %1, ptr %16, align 8
  store i32 %2, ptr %17, align 4
  store ptr %3, ptr %18, align 8
  store i32 0, ptr %19, align 4
  br label %20

20:                                               ; preds = %85, %4
  %21 = load i32, ptr %19, align 4
  %22 = load ptr, ptr %16, align 8
  %23 = getelementptr inbounds %struct._zend_ast_list, ptr %22, i32 0, i32 3
  %24 = load i32, ptr %23, align 8
  %25 = icmp ult i32 %21, %24
  br i1 %25, label %26, label %96

26:                                               ; preds = %20
  %27 = load i32, ptr %19, align 4
  %28 = icmp ne i32 %27, 0
  br i1 %28, label %29, label %85

29:                                               ; preds = %26
  %30 = load ptr, ptr %15, align 8
  %31 = load ptr, ptr %18, align 8
  store ptr %30, ptr %13, align 8
  store ptr %31, ptr %14, align 8
  %32 = load ptr, ptr %13, align 8
  %33 = load ptr, ptr %14, align 8
  %34 = load ptr, ptr %14, align 8
  %35 = call i64 @strlen(ptr noundef %34) #14
  store ptr %32, ptr %8, align 8
  store ptr %33, ptr %9, align 8
  store i64 %35, ptr %10, align 8
  store i8 0, ptr %11, align 1
  %36 = load ptr, ptr %8, align 8
  %37 = load i64, ptr %10, align 8
  %38 = load i8, ptr %11, align 1
  %39 = trunc i8 %38 to i1
  store ptr %36, ptr %5, align 8
  store i64 %37, ptr %6, align 8
  %40 = zext i1 %39 to i8
  store i8 %40, ptr %7, align 1
  %41 = load ptr, ptr %5, align 8
  %42 = load ptr, ptr %41, align 8
  %43 = icmp ne ptr %42, null
  %44 = xor i1 %43, true
  br i1 %44, label %45, label %46

45:                                               ; preds = %29
  br label %59

46:                                               ; preds = %29
  %47 = load ptr, ptr %5, align 8
  %48 = load ptr, ptr %47, align 8
  %49 = getelementptr inbounds %struct._zend_string, ptr %48, i32 0, i32 2
  %50 = load i64, ptr %49, align 8
  %51 = load i64, ptr %6, align 8
  %52 = add i64 %51, %50
  store i64 %52, ptr %6, align 8
  %53 = load i64, ptr %6, align 8
  %54 = load ptr, ptr %5, align 8
  %55 = getelementptr inbounds %struct.smart_str, ptr %54, i32 0, i32 1
  %56 = load i64, ptr %55, align 8
  %57 = icmp uge i64 %53, %56
  br i1 %57, label %58, label %69

58:                                               ; preds = %46
  br label %59

59:                                               ; preds = %58, %45
  %60 = load i8, ptr %7, align 1
  %61 = trunc i8 %60 to i1
  br i1 %61, label %62, label %65

62:                                               ; preds = %59
  %63 = load ptr, ptr %5, align 8
  %64 = load i64, ptr %6, align 8
  call void @smart_str_realloc(ptr noundef %63, i64 noundef %64) #10
  br label %68

65:                                               ; preds = %59
  %66 = load ptr, ptr %5, align 8
  %67 = load i64, ptr %6, align 8
  call void @smart_str_erealloc(ptr noundef %66, i64 noundef %67) #10
  br label %68

68:                                               ; preds = %65, %62
  br label %69

69:                                               ; preds = %68, %46
  %70 = load i64, ptr %6, align 8
  store i64 %70, ptr %12, align 8
  %71 = load ptr, ptr %8, align 8
  %72 = load ptr, ptr %71, align 8
  %73 = getelementptr inbounds %struct._zend_string, ptr %72, i32 0, i32 3
  %74 = load ptr, ptr %8, align 8
  %75 = load ptr, ptr %74, align 8
  %76 = getelementptr inbounds %struct._zend_string, ptr %75, i32 0, i32 2
  %77 = load i64, ptr %76, align 8
  %78 = getelementptr inbounds i8, ptr %73, i64 %77
  %79 = load ptr, ptr %9, align 8
  %80 = load i64, ptr %10, align 8
  call void @llvm.memcpy.p0.p0.i64(ptr align 1 %78, ptr align 1 %79, i64 %80, i1 false)
  %81 = load i64, ptr %12, align 8
  %82 = load ptr, ptr %8, align 8
  %83 = load ptr, ptr %82, align 8
  %84 = getelementptr inbounds %struct._zend_string, ptr %83, i32 0, i32 2
  store i64 %81, ptr %84, align 8
  br label %85

85:                                               ; preds = %69, %26
  %86 = load ptr, ptr %15, align 8
  %87 = load ptr, ptr %16, align 8
  %88 = getelementptr inbounds %struct._zend_ast_list, ptr %87, i32 0, i32 4
  %89 = load i32, ptr %19, align 4
  %90 = zext i32 %89 to i64
  %91 = getelementptr inbounds [1 x ptr], ptr %88, i64 0, i64 %90
  %92 = load ptr, ptr %91, align 8
  %93 = load i32, ptr %17, align 4
  call void @zend_ast_export_name(ptr noundef %86, ptr noundef %92, i32 noundef 0, i32 noundef %93)
  %94 = load i32, ptr %19, align 4
  %95 = add i32 %94, 1
  store i32 %95, ptr %19, align 4
  br label %20

96:                                               ; preds = %20
  ret void
}