; Function Attrs: nounwind uwtable
define internal fastcc void @zend_ast_export_name_list_ex(ptr noundef %0, ptr nocapture noundef readonly %1, i32 noundef %2, ptr nocapture noundef readonly %3) unnamed_addr #0 {
  %5 = getelementptr inbounds i8, ptr %1, i64 8
  %6 = load i32, ptr %5, align 8
  %.not38 = icmp eq i32 %6, 0
  br i1 %.not38, label %._crit_edge, label %.lr.ph

.lr.ph:                                           ; preds = %4
  %7 = getelementptr inbounds i8, ptr %0, i64 8
  %8 = getelementptr inbounds i8, ptr %1, i64 16
  br label %9

9:                                                ; preds = %.lr.ph, %zend_ast_export_name.exit
  %indvars.iv = phi i64 [ 0, %.lr.ph ], [ %indvars.iv.next, %zend_ast_export_name.exit ]
  %.not = icmp eq i64 %indvars.iv, 0
  br i1 %.not, label %26, label %10

10:                                               ; preds = %9
  %11 = tail call i64 @strlen(ptr noundef nonnull dereferenceable(1) %3) #17
  %12 = load ptr, ptr %0, align 8
  %.not35 = icmp eq ptr %12, null
  br i1 %.not35, label %18, label %13

13:                                               ; preds = %10
  %14 = getelementptr inbounds i8, ptr %12, i64 16
  %15 = load i64, ptr %14, align 8
  %16 = add i64 %15, %11
  %17 = load i64, ptr %7, align 8
  %.not36 = icmp ult i64 %16, %17
  br i1 %.not36, label %19, label %18

18:                                               ; preds = %10, %13
  %.032 = phi i64 [ %11, %10 ], [ %16, %13 ]
  tail call void @smart_str_erealloc(ptr noundef nonnull %0, i64 noundef %.032) #14
  %.pre = load ptr, ptr %0, align 8
  %.phi.trans.insert = getelementptr inbounds i8, ptr %.pre, i64 16
  %.pre40 = load i64, ptr %.phi.trans.insert, align 8
  br label %19

19:                                               ; preds = %18, %13
  %20 = phi i64 [ %.pre40, %18 ], [ %15, %13 ]
  %21 = phi ptr [ %.pre, %18 ], [ %12, %13 ]
  %.1 = phi i64 [ %.032, %18 ], [ %16, %13 ]
  %22 = getelementptr inbounds i8, ptr %21, i64 24
  %23 = getelementptr inbounds i8, ptr %22, i64 %20
  tail call void @llvm.memcpy.p0.p0.i64(ptr nonnull align 1 %23, ptr align 1 %3, i64 %11, i1 false)
  %24 = load ptr, ptr %0, align 8
  %25 = getelementptr inbounds i8, ptr %24, i64 16
  store i64 %.1, ptr %25, align 8
  br label %26

26:                                               ; preds = %19, %9
  %27 = getelementptr inbounds [1 x ptr], ptr %8, i64 0, i64 %indvars.iv
  %28 = load ptr, ptr %27, align 8
  %29 = load i16, ptr %28, align 8
  %30 = icmp eq i16 %29, 64
  br i1 %30, label %31, label %55

31:                                               ; preds = %26
  %32 = getelementptr inbounds i8, ptr %28, i64 16
  %33 = load i8, ptr %32, align 8
  %34 = icmp eq i8 %33, 6
  br i1 %34, label %35, label %55

35:                                               ; preds = %31
  %36 = getelementptr inbounds i8, ptr %28, i64 8
  %37 = load ptr, ptr %36, align 8
  %38 = getelementptr inbounds i8, ptr %37, i64 24
  %39 = getelementptr inbounds i8, ptr %37, i64 16
  %40 = load i64, ptr %39, align 8
  %41 = load ptr, ptr %0, align 8
  %.not.i = icmp eq ptr %41, null
  br i1 %.not.i, label %47, label %42

42:                                               ; preds = %35
  %43 = getelementptr inbounds i8, ptr %41, i64 16
  %44 = load i64, ptr %43, align 8
  %45 = add i64 %44, %40
  %46 = load i64, ptr %7, align 8
  %.not39.i = icmp ult i64 %45, %46
  br i1 %.not39.i, label %48, label %47

47:                                               ; preds = %42, %35
  %.0.i = phi i64 [ %40, %35 ], [ %45, %42 ]
  tail call void @smart_str_erealloc(ptr noundef nonnull %0, i64 noundef %.0.i) #14
  %.pre41 = load ptr, ptr %0, align 8
  %.phi.trans.insert42 = getelementptr inbounds i8, ptr %.pre41, i64 16
  %.pre43 = load i64, ptr %.phi.trans.insert42, align 8
  br label %48

48:                                               ; preds = %47, %42
  %49 = phi i64 [ %.pre43, %47 ], [ %44, %42 ]
  %50 = phi ptr [ %.pre41, %47 ], [ %41, %42 ]
  %.1.i = phi i64 [ %.0.i, %47 ], [ %45, %42 ]
  %51 = getelementptr inbounds i8, ptr %50, i64 24
  %52 = getelementptr inbounds i8, ptr %51, i64 %49
  tail call void @llvm.memcpy.p0.p0.i64(ptr nonnull align 1 %52, ptr nonnull align 1 %38, i64 %40, i1 false)
  %53 = load ptr, ptr %0, align 8
  %54 = getelementptr inbounds i8, ptr %53, i64 16
  store i64 %.1.i, ptr %54, align 8
  br label %zend_ast_export_name.exit

55:                                               ; preds = %31, %26
  tail call fastcc void @zend_ast_export_ex(ptr noundef %0, ptr noundef nonnull %28, i32 noundef 0, i32 noundef %2)
  br label %zend_ast_export_name.exit

zend_ast_export_name.exit:                        ; preds = %48, %55
  %indvars.iv.next = add nuw nsw i64 %indvars.iv, 1
  %56 = load i32, ptr %5, align 8
  %57 = zext i32 %56 to i64
  %58 = icmp ult i64 %indvars.iv.next, %57
  br i1 %58, label %9, label %._crit_edge

._crit_edge:                                      ; preds = %zend_ast_export_name.exit, %4
  ret void
}